target datalayout = "e-m:e-p270:32:32-p271:32:32-p272:64:64-i64:64-i128:128-f80:128-n8:16:32:64-S128"
target triple = "x86_64-pc-linux-gnu"

%struct.b2World = type { %struct.b2ArenaAllocator, %struct.b2BroadPhase, %struct.b2ConstraintGraph, %struct.b2IdPool, %struct.b2BodyArray, %struct.b2IdPool, %struct.b2SolverSetArray, %struct.b2IdPool, %struct.b2JointArray, %struct.b2IdPool, %struct.b2ContactArray, %struct.b2IdPool, %struct.b2IslandArray, %struct.b2IdPool, %struct.b2IdPool, %struct.b2ShapeArray, %struct.b2ChainShapeArray, %struct.b2SensorArray, %struct.b2TaskContextArray, %struct.b2SensorTaskContextArray, %struct.b2BodyMoveEventArray, %struct.b2SensorBeginTouchEventArray, %struct.b2ContactBeginTouchEventArray, [2 x %struct.b2SensorEndTouchEventArray], [2 x %struct.b2ContactEndTouchEventArray], i32, %struct.b2ContactHitEventArray, %struct.b2BitSet, %struct.b2BitSet, %struct.b2BitSet, i64, i32, %struct.b2Vec2, float, float, float, float, float, float, float, float, ptr, ptr, i16, %struct.b2Profile, ptr, ptr, ptr, ptr, i32, ptr, ptr, ptr, ptr, ptr, float, i32, i32, i16, i8, i8, i8, i8, i8, i8 }
%struct.b2ArenaAllocator = type { ptr, i32, i32, i32, i32, %struct.b2ArenaEntryArray }
%struct.b2ArenaEntryArray = type { ptr, i32, i32 }
%struct.b2BroadPhase = type { [3 x %struct.b2DynamicTree], i32, %struct.b2HashSet, %struct.b2IntArray, ptr, ptr, i32, %struct.b2AtomicInt, %struct.b2HashSet }
%struct.b2DynamicTree = type { ptr, i32, i32, i32, i32, i32, ptr, ptr, ptr, ptr, i32 }
%struct.b2IntArray = type { ptr, i32, i32 }
%struct.b2AtomicInt = type { i32 }
%struct.b2HashSet = type { ptr, i32, i32 }
%struct.b2ConstraintGraph = type { [12 x %struct.b2GraphColor] }
%struct.b2GraphColor = type { %struct.b2BitSet, %struct.b2ContactSimArray, %struct.b2JointSimArray, %union.anon }
%struct.b2ContactSimArray = type { ptr, i32, i32 }
%struct.b2JointSimArray = type { ptr, i32, i32 }
%union.anon = type { ptr }
%struct.b2BodyArray = type { ptr, i32, i32 }
%struct.b2SolverSetArray = type { ptr, i32, i32 }
%struct.b2JointArray = type { ptr, i32, i32 }
%struct.b2ContactArray = type { ptr, i32, i32 }
%struct.b2IslandArray = type { ptr, i32, i32 }
%struct.b2IdPool = type { %struct.b2IntArray, i32 }
%struct.b2ShapeArray = type { ptr, i32, i32 }
%struct.b2ChainShapeArray = type { ptr, i32, i32 }
%struct.b2SensorArray = type { ptr, i32, i32 }
%struct.b2TaskContextArray = type { ptr, i32, i32 }
%struct.b2SensorTaskContextArray = type { ptr, i32, i32 }
%struct.b2BodyMoveEventArray = type { ptr, i32, i32 }
%struct.b2SensorBeginTouchEventArray = type { ptr, i32, i32 }
%struct.b2ContactBeginTouchEventArray = type { ptr, i32, i32 }
%struct.b2SensorEndTouchEventArray = type { ptr, i32, i32 }
%struct.b2ContactEndTouchEventArray = type { ptr, i32, i32 }
%struct.b2ContactHitEventArray = type { ptr, i32, i32 }
%struct.b2BitSet = type { ptr, i32, i32 }
%struct.b2Vec2 = type { float, float }
%struct.b2Profile = type { float, float, float, float, float, float, float, float, float, float, float, float, float, float, float, float, float, float, float, float, float, float }
%struct.b2Transform = type { %struct.b2Vec2, %struct.b2Rot }
%struct.b2Rot = type { float, float }
%struct.b2Shape = type { i32, i32, i32, i32, i32, i32, float, float, float, float, float, i32, %struct.b2AABB, %struct.b2AABB, %struct.b2Vec2, i32, %struct.b2Filter, ptr, i32, %union.anon.0, i16, i8, i8, i8, i8 }
%struct.b2AABB = type { %struct.b2Vec2, %struct.b2Vec2 }
%struct.b2Filter = type { i64, i64, i32 }
%union.anon.0 = type { %struct.b2Polygon }
%struct.b2Polygon = type { [8 x %struct.b2Vec2], [8 x %struct.b2Vec2], %struct.b2Vec2, float, i32 }
%struct.b2DebugDraw = type { ptr, ptr, ptr, ptr, ptr, ptr, ptr, ptr, ptr, %struct.b2AABB, i8, i8, i8, i8, i8, i8, i8, i8, i8, i8, i8, i8, ptr }
%struct.b2BodySim = type { %struct.b2Transform, %struct.b2Vec2, %struct.b2Rot, %struct.b2Vec2, %struct.b2Vec2, %struct.b2Vec2, float, float, float, float, float, float, float, float, i32, i8, i8, i8, i8, i8 }
%struct.b2Body = type { [32 x i8], ptr, i32, i32, i32, i32, i32, i32, i32, i32, i32, i32, i32, i32, float, float, float, float, i32, i32, i32, i16, i8, i8, i8, i8 }
%struct.DrawContext = type { ptr, ptr }

; Function Attrs: inlinehint nounwind uwtable
define internal ptr @b2BodyArray_Get(ptr noundef %0, i32 noundef %1) #5 {
  %3 = alloca ptr, align 8
  %4 = alloca i32, align 4
  store ptr %0, ptr %3, align 8, !tbaa !12
  store i32 %1, ptr %4, align 4, !tbaa !3
  %5 = load ptr, ptr %3, align 8, !tbaa !12
  %6 = getelementptr inbounds nuw %struct.b2BodyArray, ptr %5, i32 0, i32 0
  %7 = load ptr, ptr %6, align 8, !tbaa !394
  %8 = load i32, ptr %4, align 4, !tbaa !3
  %9 = sext i32 %8 to i64
  %10 = getelementptr inbounds %struct.b2Body, ptr %7, i64 %9
  ret ptr %10
}

; Function Attrs: inlinehint nounwind uwtable
define internal void @b2SetBit(ptr noundef %0, i32 noundef %1) #5 {
  %3 = alloca ptr, align 8
  %4 = alloca i32, align 4
  %5 = alloca i32, align 4
  store ptr %0, ptr %3, align 8, !tbaa !274
  store i32 %1, ptr %4, align 4, !tbaa !3
  call void @llvm.lifetime.start.p0(i64 4, ptr %5) #10
  %6 = load i32, ptr %4, align 4, !tbaa !3
  %7 = udiv i32 %6, 64
  store i32 %7, ptr %5, align 4, !tbaa !3
  %8 = load i32, ptr %4, align 4, !tbaa !3
  %9 = urem i32 %8, 64
  %10 = zext i32 %9 to i64
  %11 = shl i64 1, %10
  %12 = load ptr, ptr %3, align 8, !tbaa !274
  %13 = getelementptr inbounds nuw %struct.b2BitSet, ptr %12, i32 0, i32 0
  %14 = load ptr, ptr %13, align 8, !tbaa !279
  %15 = load i32, ptr %5, align 4, !tbaa !3
  %16 = zext i32 %15 to i64
  %17 = getelementptr inbounds nuw i64, ptr %14, i64 %16
  %18 = load i64, ptr %17, align 8, !tbaa !123
  %19 = or i64 %18, %11
  store i64 %19, ptr %17, align 8, !tbaa !123
  call void @llvm.lifetime.end.p0(i64 4, ptr %5) #10
  ret void
}

; Function Attrs: inlinehint nounwind uwtable
define internal ptr @b2ShapeArray_Get(ptr noundef %0, i32 noundef %1) #5 {
  %3 = alloca ptr, align 8
  %4 = alloca i32, align 4
  store ptr %0, ptr %3, align 8, !tbaa !12
  store i32 %1, ptr %4, align 4, !tbaa !3
  %5 = load ptr, ptr %3, align 8, !tbaa !12
  %6 = getelementptr inbounds nuw %struct.b2ShapeArray, ptr %5, i32 0, i32 0
  %7 = load ptr, ptr %6, align 8, !tbaa !612
  %8 = load i32, ptr %4, align 4, !tbaa !3
  %9 = sext i32 %8 to i64
  %10 = getelementptr inbounds %struct.b2Shape, ptr %7, i64 %9
  ret ptr %10
}

; Function Attrs: nounwind uwtable
define internal zeroext i1 @DrawQueryCallback(i32 noundef %0, i32 noundef %1, ptr noundef %2) #6 {
  %4 = alloca i32, align 4
  %5 = alloca i32, align 4
  %6 = alloca ptr, align 8
  %7 = alloca ptr, align 8
  %8 = alloca ptr, align 8
  %9 = alloca ptr, align 8
  %10 = alloca ptr, align 8
  %11 = alloca ptr, align 8
  %12 = alloca ptr, align 8
  %13 = alloca i32, align 4
  %14 = alloca %struct.b2AABB, align 4
  %15 = alloca [4 x %struct.b2Vec2], align 16
  store i32 %0, ptr %4, align 4, !tbaa !3
  store i32 %1, ptr %5, align 4, !tbaa !3
  store ptr %2, ptr %6, align 8, !tbaa !12
  call void @llvm.lifetime.start.p0(i64 8, ptr %7) #10
  %16 = load ptr, ptr %6, align 8, !tbaa !12
  store ptr %16, ptr %7, align 8, !tbaa !609
  call void @llvm.lifetime.start.p0(i64 8, ptr %8) #10
  %17 = load ptr, ptr %7, align 8, !tbaa !609
  %18 = getelementptr inbounds nuw %struct.DrawContext, ptr %17, i32 0, i32 0
  %19 = load ptr, ptr %18, align 8, !tbaa !377
  store ptr %19, ptr %8, align 8, !tbaa !47
  call void @llvm.lifetime.start.p0(i64 8, ptr %9) #10
  %20 = load ptr, ptr %7, align 8, !tbaa !609
  %21 = getelementptr inbounds nuw %struct.DrawContext, ptr %20, i32 0, i32 1
  %22 = load ptr, ptr %21, align 8, !tbaa !379
  store ptr %22, ptr %9, align 8, !tbaa !305
  call void @llvm.lifetime.start.p0(i64 8, ptr %10) #10
  %23 = load ptr, ptr %8, align 8, !tbaa !47
  %24 = getelementptr inbounds nuw %struct.b2World, ptr %23, i32 0, i32 15
  %25 = load i32, ptr %5, align 4, !tbaa !3
  %26 = call ptr @b2ShapeArray_Get(ptr noundef %24, i32 noundef %25)
  store ptr %26, ptr %10, align 8, !tbaa !113
  %27 = load ptr, ptr %8, align 8, !tbaa !47
  %28 = getelementptr inbounds nuw %struct.b2World, ptr %27, i32 0, i32 27
  %29 = load ptr, ptr %10, align 8, !tbaa !113
  %30 = getelementptr inbounds nuw %struct.b2Shape, ptr %29, i32 0, i32 1
  %31 = load i32, ptr %30, align 4, !tbaa !527
  call void @b2SetBit(ptr noundef %28, i32 noundef %31)
  %32 = load ptr, ptr %9, align 8, !tbaa !305
  %33 = getelementptr inbounds nuw %struct.b2DebugDraw, ptr %32, i32 0, i32 11
  %34 = load i8, ptr %33, align 1, !tbaa !309, !range !90, !noundef !91
  %35 = trunc i8 %34 to i1
  br i1 %35, label %36, label %138

36:                                               ; preds = %3
  call void @llvm.lifetime.start.p0(i64 8, ptr %11) #10
  %37 = load ptr, ptr %8, align 8, !tbaa !47
  %38 = getelementptr inbounds nuw %struct.b2World, ptr %37, i32 0, i32 4
  %39 = load ptr, ptr %10, align 8, !tbaa !113
  %40 = getelementptr inbounds nuw %struct.b2Shape, ptr %39, i32 0, i32 1
  %41 = load i32, ptr %40, align 4, !tbaa !527
  %42 = call ptr @b2BodyArray_Get(ptr noundef %38, i32 noundef %41)
  store ptr %42, ptr %11, align 8, !tbaa !108
  call void @llvm.lifetime.start.p0(i64 8, ptr %12) #10
  %43 = load ptr, ptr %8, align 8, !tbaa !47
  %44 = load ptr, ptr %11, align 8, !tbaa !108
  %45 = call ptr @b2GetBodySim(ptr noundef %43, ptr noundef %44)
  store ptr %45, ptr %12, align 8, !tbaa !211
  call void @llvm.lifetime.start.p0(i64 4, ptr %13) #10
  %46 = load ptr, ptr %10, align 8, !tbaa !113
  %47 = getelementptr inbounds nuw %struct.b2Shape, ptr %46, i32 0, i32 18
  %48 = load i32, ptr %47, align 8, !tbaa !319
  %49 = icmp ne i32 %48, 0
  br i1 %49, label %50, label %54

50:                                               ; preds = %36
  %51 = load ptr, ptr %10, align 8, !tbaa !113
  %52 = getelementptr inbounds nuw %struct.b2Shape, ptr %51, i32 0, i32 18
  %53 = load i32, ptr %52, align 8, !tbaa !319
  store i32 %53, ptr %13, align 4, !tbaa !3
  br label %128

54:                                               ; preds = %36
  %55 = load ptr, ptr %11, align 8, !tbaa !108
  %56 = getelementptr inbounds nuw %struct.b2Body, ptr %55, i32 0, i32 20
  %57 = load i32, ptr %56, align 8, !tbaa !320
  %58 = icmp eq i32 %57, 2
  br i1 %58, label %59, label %65

59:                                               ; preds = %54
  %60 = load ptr, ptr %11, align 8, !tbaa !108
  %61 = getelementptr inbounds nuw %struct.b2Body, ptr %60, i32 0, i32 14
  %62 = load float, ptr %61, align 8, !tbaa !321
  %63 = fcmp oeq float %62, 0.000000e+00
  br i1 %63, label %64, label %65

64:                                               ; preds = %59
  store i32 16711680, ptr %13, align 4, !tbaa !3
  br label %127

65:                                               ; preds = %59, %54
  %66 = load ptr, ptr %11, align 8, !tbaa !108
  %67 = getelementptr inbounds nuw %struct.b2Body, ptr %66, i32 0, i32 2
  %68 = load i32, ptr %67, align 8, !tbaa !322
  %69 = icmp eq i32 %68, 1
  br i1 %69, label %70, label %71

70:                                               ; preds = %65
  store i32 7372944, ptr %13, align 4, !tbaa !3
  br label %126

71:                                               ; preds = %65
  %72 = load ptr, ptr %10, align 8, !tbaa !113
  %73 = getelementptr inbounds nuw %struct.b2Shape, ptr %72, i32 0, i32 4
  %74 = load i32, ptr %73, align 8, !tbaa !323
  %75 = icmp ne i32 %74, -1
  br i1 %75, label %76, label %77

76:                                               ; preds = %71
  store i32 16113331, ptr %13, align 4, !tbaa !3
  br label %125

77:                                               ; preds = %71
  %78 = load ptr, ptr %12, align 8, !tbaa !211
  %79 = getelementptr inbounds nuw %struct.b2BodySim, ptr %78, i32 0, i32 16
  %80 = load i8, ptr %79, align 1, !tbaa !324, !range !90, !noundef !91
  %81 = trunc i8 %80 to i1
  br i1 %81, label %82, label %88

82:                                               ; preds = %77
  %83 = load ptr, ptr %11, align 8, !tbaa !108
  %84 = getelementptr inbounds nuw %struct.b2Body, ptr %83, i32 0, i32 2
  %85 = load i32, ptr %84, align 8, !tbaa !322
  %86 = icmp eq i32 %85, 2
  br i1 %86, label %87, label %88

87:                                               ; preds = %82
  store i32 4251856, ptr %13, align 4, !tbaa !3
  br label %124

88:                                               ; preds = %82, %77
  %89 = load ptr, ptr %11, align 8, !tbaa !108
  %90 = getelementptr inbounds nuw %struct.b2Body, ptr %89, i32 0, i32 24
  %91 = load i8, ptr %90, align 8, !tbaa !325, !range !90, !noundef !91
  %92 = trunc i8 %91 to i1
  br i1 %92, label %93, label %94

93:                                               ; preds = %88
  store i32 16776960, ptr %13, align 4, !tbaa !3
  br label %123

94:                                               ; preds = %88
  %95 = load ptr, ptr %12, align 8, !tbaa !211
  %96 = getelementptr inbounds nuw %struct.b2BodySim, ptr %95, i32 0, i32 15
  %97 = load i8, ptr %96, align 4, !tbaa !326, !range !90, !noundef !91
  %98 = trunc i8 %97 to i1
  br i1 %98, label %99, label %100

99:                                               ; preds = %94
  store i32 16416882, ptr %13, align 4, !tbaa !3
  br label %122

100:                                              ; preds = %94
  %101 = load ptr, ptr %11, align 8, !tbaa !108
  %102 = getelementptr inbounds nuw %struct.b2Body, ptr %101, i32 0, i32 20
  %103 = load i32, ptr %102, align 8, !tbaa !320
  %104 = icmp eq i32 %103, 0
  br i1 %104, label %105, label %106

105:                                              ; preds = %100
  store i32 10025880, ptr %13, align 4, !tbaa !3
  br label %121

106:                                              ; preds = %100
  %107 = load ptr, ptr %11, align 8, !tbaa !108
  %108 = getelementptr inbounds nuw %struct.b2Body, ptr %107, i32 0, i32 20
  %109 = load i32, ptr %108, align 8, !tbaa !320
  %110 = icmp eq i32 %109, 1
  br i1 %110, label %111, label %112

111:                                              ; preds = %106
  store i32 4286945, ptr %13, align 4, !tbaa !3
  br label %120

112:                                              ; preds = %106
  %113 = load ptr, ptr %11, align 8, !tbaa !108
  %114 = getelementptr inbounds nuw %struct.b2Body, ptr %113, i32 0, i32 2
  %115 = load i32, ptr %114, align 8, !tbaa !322
  %116 = icmp eq i32 %115, 2
  br i1 %116, label %117, label %118

117:                                              ; preds = %112
  store i32 16761035, ptr %13, align 4, !tbaa !3
  br label %119

118:                                              ; preds = %112
  store i32 8421504, ptr %13, align 4, !tbaa !3
  br label %119

119:                                              ; preds = %118, %117
  br label %120

120:                                              ; preds = %119, %111
  br label %121

121:                                              ; preds = %120, %105
  br label %122

122:                                              ; preds = %121, %99
  br label %123

123:                                              ; preds = %122, %93
  br label %124

124:                                              ; preds = %123, %87
  br label %125

125:                                              ; preds = %124, %76
  br label %126

126:                                              ; preds = %125, %70
  br label %127

127:                                              ; preds = %126, %64
  br label %128

128:                                              ; preds = %127, %50
  %129 = load ptr, ptr %9, align 8, !tbaa !305
  %130 = load ptr, ptr %10, align 8, !tbaa !113
  %131 = load ptr, ptr %12, align 8, !tbaa !211
  %132 = getelementptr inbounds nuw %struct.b2BodySim, ptr %131, i32 0, i32 0
  %133 = load i32, ptr %13, align 4, !tbaa !3
  %134 = getelementptr inbounds nuw { <2 x float>, <2 x float> }, ptr %132, i32 0, i32 0
  %135 = load <2 x float>, ptr %134, align 4
  %136 = getelementptr inbounds nuw { <2 x float>, <2 x float> }, ptr %132, i32 0, i32 1
  %137 = load <2 x float>, ptr %136, align 4
  call void @b2DrawShape(ptr noundef %129, ptr noundef %130, <2 x float> %135, <2 x float> %137, i32 noundef %133)
  call void @llvm.lifetime.end.p0(i64 4, ptr %13) #10
  call void @llvm.lifetime.end.p0(i64 8, ptr %12) #10
  call void @llvm.lifetime.end.p0(i64 8, ptr %11) #10
  br label %138

138:                                              ; preds = %128, %3
  %139 = load ptr, ptr %9, align 8, !tbaa !305
  %140 = getelementptr inbounds nuw %struct.b2DebugDraw, ptr %139, i32 0, i32 14
  %141 = load i8, ptr %140, align 4, !tbaa !337, !range !90, !noundef !91
  %142 = trunc i8 %141 to i1
  br i1 %142, label %143, label %188

143:                                              ; preds = %138
  call void @llvm.lifetime.start.p0(i64 16, ptr %14) #10
  %144 = load ptr, ptr %10, align 8, !tbaa !113
  %145 = getelementptr inbounds nuw %struct.b2Shape, ptr %144, i32 0, i32 13
  call void @llvm.memcpy.p0.p0.i64(ptr align 4 %14, ptr align 8 %145, i64 16, i1 false), !tbaa.struct !316
  call void @llvm.lifetime.start.p0(i64 32, ptr %15) #10
  %146 = getelementptr inbounds nuw %struct.b2Vec2, ptr %15, i32 0, i32 0
  %147 = getelementptr inbounds nuw %struct.b2AABB, ptr %14, i32 0, i32 0
  %148 = getelementptr inbounds nuw %struct.b2Vec2, ptr %147, i32 0, i32 0
  %149 = load float, ptr %148, align 4, !tbaa !340
  store float %149, ptr %146, align 8, !tbaa !341
  %150 = getelementptr inbounds nuw %struct.b2Vec2, ptr %15, i32 0, i32 1
  %151 = getelementptr inbounds nuw %struct.b2AABB, ptr %14, i32 0, i32 0
  %152 = getelementptr inbounds nuw %struct.b2Vec2, ptr %151, i32 0, i32 1
  %153 = load float, ptr %152, align 4, !tbaa !342
  store float %153, ptr %150, align 4, !tbaa !343
  %154 = getelementptr inbounds %struct.b2Vec2, ptr %15, i64 1
  %155 = getelementptr inbounds nuw %struct.b2Vec2, ptr %154, i32 0, i32 0
  %156 = getelementptr inbounds nuw %struct.b2AABB, ptr %14, i32 0, i32 1
  %157 = getelementptr inbounds nuw %struct.b2Vec2, ptr %156, i32 0, i32 0
  %158 = load float, ptr %157, align 4, !tbaa !344
  store float %158, ptr %155, align 8, !tbaa !341
  %159 = getelementptr inbounds nuw %struct.b2Vec2, ptr %154, i32 0, i32 1
  %160 = getelementptr inbounds nuw %struct.b2AABB, ptr %14, i32 0, i32 0
  %161 = getelementptr inbounds nuw %struct.b2Vec2, ptr %160, i32 0, i32 1
  %162 = load float, ptr %161, align 4, !tbaa !342
  store float %162, ptr %159, align 4, !tbaa !343
  %163 = getelementptr inbounds %struct.b2Vec2, ptr %15, i64 2
  %164 = getelementptr inbounds nuw %struct.b2Vec2, ptr %163, i32 0, i32 0
  %165 = getelementptr inbounds nuw %struct.b2AABB, ptr %14, i32 0, i32 1
  %166 = getelementptr inbounds nuw %struct.b2Vec2, ptr %165, i32 0, i32 0
  %167 = load float, ptr %166, align 4, !tbaa !344
  store float %167, ptr %164, align 8, !tbaa !341
  %168 = getelementptr inbounds nuw %struct.b2Vec2, ptr %163, i32 0, i32 1
  %169 = getelementptr inbounds nuw %struct.b2AABB, ptr %14, i32 0, i32 1
  %170 = getelementptr inbounds nuw %struct.b2Vec2, ptr %169, i32 0, i32 1
  %171 = load float, ptr %170, align 4, !tbaa !345
  store float %171, ptr %168, align 4, !tbaa !343
  %172 = getelementptr inbounds %struct.b2Vec2, ptr %15, i64 3
  %173 = getelementptr inbounds nuw %struct.b2Vec2, ptr %172, i32 0, i32 0
  %174 = getelementptr inbounds nuw %struct.b2AABB, ptr %14, i32 0, i32 0
  %175 = getelementptr inbounds nuw %struct.b2Vec2, ptr %174, i32 0, i32 0
  %176 = load float, ptr %175, align 4, !tbaa !340
  store float %176, ptr %173, align 8, !tbaa !341
  %177 = getelementptr inbounds nuw %struct.b2Vec2, ptr %172, i32 0, i32 1
  %178 = getelementptr inbounds nuw %struct.b2AABB, ptr %14, i32 0, i32 1
  %179 = getelementptr inbounds nuw %struct.b2Vec2, ptr %178, i32 0, i32 1
  %180 = load float, ptr %179, align 4, !tbaa !345
  store float %180, ptr %177, align 4, !tbaa !343
  %181 = load ptr, ptr %9, align 8, !tbaa !305
  %182 = getelementptr inbounds nuw %struct.b2DebugDraw, ptr %181, i32 0, i32 0
  %183 = load ptr, ptr %182, align 8, !tbaa !346
  %184 = getelementptr inbounds [4 x %struct.b2Vec2], ptr %15, i64 0, i64 0
  %185 = load ptr, ptr %9, align 8, !tbaa !305
  %186 = getelementptr inbounds nuw %struct.b2DebugDraw, ptr %185, i32 0, i32 22
  %187 = load ptr, ptr %186, align 8, !tbaa !339
  call void %183(ptr noundef %184, i32 noundef 4, i32 noundef 16766720, ptr noundef %187)
  call void @llvm.lifetime.end.p0(i64 32, ptr %15) #10
  call void @llvm.lifetime.end.p0(i64 16, ptr %14) #10
  br label %188

188:                                              ; preds = %143, %138
  call void @llvm.lifetime.end.p0(i64 8, ptr %10) #10
  call void @llvm.lifetime.end.p0(i64 8, ptr %9) #10
  call void @llvm.lifetime.end.p0(i64 8, ptr %8) #10
  call void @llvm.lifetime.end.p0(i64 8, ptr %7) #10
  ret i1 true
}