; Function Attrs: nounwind uwtable
define internal noundef zeroext i1 @DrawQueryCallback(i32 %0, i32 noundef %1, ptr noundef readonly captures(none) %2) #8 {
  %4 = alloca [4 x %struct.b2Vec2], align 16
  %5 = load ptr, ptr %2, align 8, !tbaa !262
  %6 = getelementptr inbounds nuw i8, ptr %2, i64 8
  %7 = load ptr, ptr %6, align 8, !tbaa !265
  %8 = getelementptr inbounds nuw i8, ptr %5, i64 1256
  %.val41 = load ptr, ptr %8, align 8, !tbaa !418
  %9 = sext i32 %1 to i64
  %10 = getelementptr inbounds %struct.b2Shape, ptr %.val41, i64 %9
  %11 = getelementptr inbounds nuw i8, ptr %5, i64 1472
  %12 = getelementptr inbounds nuw i8, ptr %10, i64 4
  %13 = load i32, ptr %12, align 4, !tbaa !425
  %.val = load ptr, ptr %11, align 8, !tbaa !226
  %14 = lshr i32 %13, 6
  %15 = and i32 %13, 63
  %16 = zext nneg i32 %15 to i64
  %17 = shl nuw i64 1, %16
  %18 = zext nneg i32 %14 to i64
  %19 = getelementptr inbounds nuw i64, ptr %.val, i64 %18
  %20 = load i64, ptr %19, align 8, !tbaa !227
  %21 = or i64 %17, %20
  store i64 %21, ptr %19, align 8, !tbaa !227
  %22 = getelementptr inbounds nuw i8, ptr %7, i64 89
  %23 = load i8, ptr %22, align 1, !tbaa !302, !range !77, !noundef !78
  %24 = trunc nuw i8 %23 to i1
  br i1 %24, label %25, label %67

25:                                               ; preds = %3
  %26 = getelementptr inbounds nuw i8, ptr %5, i64 1032
  %.val40 = load ptr, ptr %26, align 8, !tbaa !269
  %27 = sext i32 %13 to i64
  %28 = getelementptr inbounds %struct.b2Body, ptr %.val40, i64 %27
  %29 = tail call ptr @b2GetBodySim(ptr noundef nonnull %5, ptr noundef %28) #22
  %30 = getelementptr inbounds nuw i8, ptr %10, i64 128
  %31 = load i32, ptr %30, align 8, !tbaa !310
  %.not = icmp eq i32 %31, 0
  br i1 %.not, label %32, label %63

32:                                               ; preds = %25
  %33 = getelementptr inbounds nuw i8, ptr %28, i64 112
  %34 = load i32, ptr %33, align 8, !tbaa !275
  %35 = icmp eq i32 %34, 2
  br i1 %35, label %36, label %40

36:                                               ; preds = %32
  %37 = getelementptr inbounds nuw i8, ptr %28, i64 88
  %38 = load float, ptr %37, align 8, !tbaa !277
  %39 = fcmp oeq float %38, 0.000000e+00
  br i1 %39, label %63, label %40

40:                                               ; preds = %36, %32
  %41 = getelementptr inbounds nuw i8, ptr %28, i64 40
  %42 = load i32, ptr %41, align 8, !tbaa !282
  %43 = icmp eq i32 %42, 1
  br i1 %43, label %63, label %44

44:                                               ; preds = %40
  %45 = getelementptr inbounds nuw i8, ptr %10, i64 16
  %46 = load i32, ptr %45, align 8, !tbaa !311
  %.not39 = icmp eq i32 %46, -1
  br i1 %.not39, label %47, label %63

47:                                               ; preds = %44
  %48 = getelementptr inbounds nuw i8, ptr %29, i64 93
  %49 = load i8, ptr %48, align 1, !tbaa !312, !range !77, !noundef !78
  %50 = trunc nuw i8 %49 to i1
  %51 = icmp eq i32 %42, 2
  %or.cond = and i1 %51, %50
  br i1 %or.cond, label %63, label %52

52:                                               ; preds = %47
  %53 = getelementptr inbounds nuw i8, ptr %28, i64 120
  %54 = load i8, ptr %53, align 8, !tbaa !313, !range !77, !noundef !78
  %55 = trunc nuw i8 %54 to i1
  br i1 %55, label %63, label %56

56:                                               ; preds = %52
  %57 = getelementptr inbounds nuw i8, ptr %29, i64 92
  %58 = load i8, ptr %57, align 4, !tbaa !314, !range !77, !noundef !78
  %59 = trunc nuw i8 %58 to i1
  br i1 %59, label %63, label %60

60:                                               ; preds = %56
  switch i32 %34, label %62 [
    i32 0, label %63
    i32 1, label %61
  ]

61:                                               ; preds = %60
  br label %63

62:                                               ; preds = %60
  %. = select i1 %51, i32 16761035, i32 8421504
  br label %63

63:                                               ; preds = %62, %60, %56, %52, %47, %44, %40, %36, %25, %61
  %.0 = phi i32 [ 4286945, %61 ], [ %31, %25 ], [ 16711680, %36 ], [ 7372944, %40 ], [ 16113331, %44 ], [ 4251856, %47 ], [ 16776960, %52 ], [ 16416882, %56 ], [ 10025880, %60 ], [ %., %62 ]
  %64 = load <2 x float>, ptr %29, align 4
  %65 = getelementptr inbounds nuw i8, ptr %29, i64 8
  %66 = load <2 x float>, ptr %65, align 4
  tail call fastcc void @b2DrawShape(ptr noundef nonnull %7, ptr noundef nonnull %10, <2 x float> %64, <2 x float> %66, i32 noundef %.0)
  br label %67

67:                                               ; preds = %63, %3
  %68 = getelementptr inbounds nuw i8, ptr %7, i64 92
  %69 = load i8, ptr %68, align 4, !tbaa !333, !range !77, !noundef !78
  %70 = trunc nuw i8 %69 to i1
  br i1 %70, label %71, label %83

71:                                               ; preds = %67
  %72 = getelementptr inbounds nuw i8, ptr %10, i64 64
  %.sroa.0.0.copyload = load float, ptr %72, align 8, !tbaa !206
  %.sroa.5.0..sroa_idx = getelementptr inbounds nuw i8, ptr %10, i64 68
  %.sroa.5.0.copyload = load float, ptr %.sroa.5.0..sroa_idx, align 4, !tbaa !206
  %.sroa.7.0..sroa_idx = getelementptr inbounds nuw i8, ptr %10, i64 72
  %.sroa.7.0.copyload = load float, ptr %.sroa.7.0..sroa_idx, align 8, !tbaa !206
  %.sroa.9.0..sroa_idx = getelementptr inbounds nuw i8, ptr %10, i64 76
  %.sroa.9.0.copyload = load float, ptr %.sroa.9.0..sroa_idx, align 4, !tbaa !206
  call void @llvm.lifetime.start.p0(i64 32, ptr nonnull %4) #22
  store float %.sroa.0.0.copyload, ptr %4, align 16, !tbaa !336
  %73 = getelementptr inbounds nuw i8, ptr %4, i64 4
  store float %.sroa.5.0.copyload, ptr %73, align 4, !tbaa !337
  %74 = getelementptr inbounds nuw i8, ptr %4, i64 8
  store float %.sroa.7.0.copyload, ptr %74, align 8, !tbaa !336
  %75 = getelementptr inbounds nuw i8, ptr %4, i64 12
  store float %.sroa.5.0.copyload, ptr %75, align 4, !tbaa !337
  %76 = getelementptr inbounds nuw i8, ptr %4, i64 16
  store float %.sroa.7.0.copyload, ptr %76, align 16, !tbaa !336
  %77 = getelementptr inbounds nuw i8, ptr %4, i64 20
  store float %.sroa.9.0.copyload, ptr %77, align 4, !tbaa !337
  %78 = getelementptr inbounds nuw i8, ptr %4, i64 24
  store float %.sroa.0.0.copyload, ptr %78, align 8, !tbaa !336
  %79 = getelementptr inbounds nuw i8, ptr %4, i64 28
  store float %.sroa.9.0.copyload, ptr %79, align 4, !tbaa !337
  %80 = load ptr, ptr %7, align 8, !tbaa !338
  %81 = getelementptr inbounds nuw i8, ptr %7, i64 104
  %82 = load ptr, ptr %81, align 8, !tbaa !272
  call void %80(ptr noundef nonnull %4, i32 noundef 4, i32 noundef 16766720, ptr noundef %82) #22
  call void @llvm.lifetime.end.p0(i64 32, ptr nonnull %4) #22
  br label %83

83:                                               ; preds = %71, %67
  ret i1 true
}